; Function Attrs: mustprogress uwtable
define void @_ZN5sim_t15set_procs_debugEb(ptr nocapture noundef nonnull readonly align 8 dereferenceable(2888) %0, i1 noundef zeroext %1) local_unnamed_addr #6 align 2 {
  %3 = getelementptr inbounds i8, ptr %0, i64 864
  %4 = getelementptr inbounds i8, ptr %0, i64 872
  %5 = load ptr, ptr %4, align 8
  %6 = load ptr, ptr %3, align 8
  %.not = icmp eq ptr %5, %6
  br i1 %.not, label %._crit_edge, label %.lr.ph

.lr.ph:                                           ; preds = %2, %.lr.ph
  %7 = phi ptr [ %12, %.lr.ph ], [ %6, %2 ]
  %.04 = phi i64 [ %10, %.lr.ph ], [ 0, %2 ]
  %8 = getelementptr inbounds ptr, ptr %7, i64 %.04
  %9 = load ptr, ptr %8, align 8
  tail call void @_ZN11processor_t9set_debugEb(ptr noundef nonnull align 8 dereferenceable(659880) %9, i1 noundef zeroext %1)
  %10 = add nuw i64 %.04, 1
  %11 = load ptr, ptr %4, align 8
  %12 = load ptr, ptr %3, align 8
  %13 = ptrtoint ptr %11 to i64
  %14 = ptrtoint ptr %12 to i64
  %15 = sub i64 %13, %14
  %16 = ashr exact i64 %15, 3
  %17 = icmp ult i64 %10, %16
  br i1 %17, label %.lr.ph, label %._crit_edge, !llvm.loop !18

._crit_edge:                                      ; preds = %.lr.ph, %2
  ret void
}